(lp0
(lp1
F5.0
aF5.0
aF5.0
aF3.3333333333333339
aF3.3333333333333339
aF3.3333333333333339
aF2.5
aF2.5
aF2.5
aF20.480000000000004
aF20.480000000000004
aF20.480000000000004
aF13.653333333333334
aF13.653333333333334
aF13.653333333333334
aF10.240000000000002
aF10.240000000000002
aF10.240000000000002
aF40.0
aF40.0
aF40.0
aF26.666666666666671
aF26.666666666666671
aF26.666666666666671
aF20.0
aF20.0
aF20.0
aa(lp2
(lp3
F25.683782639124747
aF49.20346636891027
aa(lp4
F25.683782639124747
aF49.20346636891027
aa(lp5
F25.683782639124747
aF49.20346636891027
aa(lp6
F25.274588028526427
aF33.651769597326691
aa(lp7
F25.274588028526427
aF33.651769597326691
aa(lp8
F25.274588028526427
aF33.651769597326691
aa(lp9
F25.137841107654804
aF25.929362549457938
aa(lp10
F25.137841107654804
aF25.929362549457938
aa(lp11
F25.137841107654804
aF25.929362549457938
aa(lp12
F65.971012892735047
aF200.36223238688356
aa(lp13
F65.971012892735047
aF200.36223238688356
aa(lp14
F65.971012892735047
aF200.36223238688356
aa(lp15
F64.801821543695681
aF136.72825103034495
aa(lp16
F64.801821543695681
aF136.72825103034495
aa(lp17
F64.801821543695681
aF136.72825103034495
aa(lp18
F64.424680912127613
aF104.16992281812585
aa(lp19
F64.424680912127613
aF104.16992281812585
aa(lp20
F64.424680912127613
aF104.16992281812585
aa(lp21
F103.18184391870862
aF391.7187709956732
aa(lp22
F103.18184391870862
aF391.7187709956732
aa(lp23
F103.18184391870862
aF391.7187709956732
aa(lp24
F101.30481490448935
aF267.55565564889196
aa(lp25
F101.30481490448935
aF267.55565564889196
aa(lp26
F101.30481490448935
aF267.55565564889196
aa(lp27
F100.70430176165921
aF202.7355951942335
aa(lp28
F100.70430176165921
aF202.7355951942335
aa(lp29
F100.70430176165921
aF202.7355951942335
aaa(lp30
(lp31
F0.0096577590299536248
aF0.096577590299536248
aa(lp32
F0.066767040667544436
aF0.066767040667544436
aa(lp33
F0.16337664616775954
aF0.016337664616775955
aa(lp34
F0.009213389783947994
aF0.092133897839479936
aa(lp35
F0.056567781679261311
aF0.056567781679261311
aa(lp36
F0.11638829210713977
aF0.011638829210713977
aa(lp37
F0.0087894635212641507
aF0.0878946352126415
aa(lp38
F0.048955098790724468
aF0.048955098790724468
aa(lp39
F0.090152539444193547
aF0.0090152539444193543
aa(lp40
F0.0098956638660454982
aF0.098956638660454968
aa(lp41
F0.076896145573183736
aF0.076896145573183736
aa(lp42
F0.23811949925591758
aF0.023811949925591758
aa(lp43
F0.0095338891919324736
aF0.095338891919324723
aa(lp44
F0.06774836707468164
aF0.06774836707468164
aa(lp45
F0.17398400523925434
aF0.017398400523925432
aa(lp46
F0.0092575523554074765
aF0.092575523554074765
aa(lp47
F0.060737412547223084
aF0.060737412547223084
aa(lp48
F0.13682216822524376
aF0.013682216822524376
aa(lp49
F0.0099493341256258264
aF0.099493341256258264
aa(lp50
F0.080824308547121179
aF0.080824308547121179
aa(lp51
F0.2809901962089536
aF0.028099019620895362
aa(lp52
F0.009603168145655587
aF0.09603168145655587
aa(lp53
F0.072294726042777424
aF0.072294726042777424
aa(lp54
F0.20823510416668745
aF0.020823510416668745
aa(lp55
F0.00939823013243587
aF0.093982301324358697
aa(lp56
F0.065910910861227814
aF0.065910910861227814
aa(lp57
F0.16531950381840171
aF0.016531950381840171
aaa.