(lp0
(lp1
(lp2
(lp3
(lp4
F0.0096577590299536248
aF0.096577590299536248
aa(lp5
F0.040293103193189794
aF0.080586206386379589
aa(lp6
F0.066767040667544436
aF0.066767040667544436
aa(lp7
F0.099432210609946656
aF0.049716105304973328
aa(lp8
F0.14074802995709765
aF0.028149605991419527
aa(lp9
F0.16337664616775954
aF0.016337664616775955
aaa(lp10
(lp11
F0.0094254512050351152
aF0.094254512050351139
aa(lp12
F0.038018916514972245
aF0.07603783302994449
aa(lp13
F0.06124235634930679
aF0.06124235634930679
aa(lp14
F0.088171723363396112
aF0.044085861681698056
aa(lp15
F0.11977100376685079
aF0.02395420075337016
aa(lp16
F0.13602012072199823
aF0.013602012072199823
aaa(lp17
(lp18
F0.009213389783947994
aF0.092133897839479936
aa(lp19
F0.036005625014401139
aF0.072011250028802279
aa(lp20
F0.056567781679261311
aF0.056567781679261311
aa(lp21
F0.079175674511203234
aF0.039587837255601617
aa(lp22
F0.10415058208041812
aF0.020830116416083625
aa(lp23
F0.11638829210713977
aF0.011638829210713977
aaa(lp24
(lp25
F0.0089887297525929871
aF0.089887297525929874
aa(lp26
F0.034125362517995306
aF0.068250725035990611
aa(lp27
F0.052464851995319743
aF0.052464851995319743
aa(lp28
F0.071742647672539475
aF0.035871323836269738
aa(lp29
F0.092032650105259864
aF0.018406530021051973
aa(lp30
F0.10161181508937014
aF0.010161181508937014
aaa(lp31
(lp32
F0.0087894635212641507
aF0.0878946352126415
aa(lp33
F0.032468980412618149
aF0.064937960825236299
aa(lp34
F0.048955098790724468
aF0.048955098790724468
aa(lp35
F0.065612454076159635
aF0.032806227038079817
aa(lp36
F0.082443728084590856
aF0.016488745616918172
aa(lp37
F0.090152539444193547
aF0.0090152539444193543
aaaa(lp38
(lp39
(lp40
F0.0097600967261534961
aF0.097600967261534957
aa(lp41
F0.041801925965531457
aF0.083603851931062914
aa(lp42
F0.070894907704774732
aF0.070894907704774732
aa(lp43
F0.10873220965945661
aF0.054366104829728305
aa(lp44
F0.15995343102068707
aF0.031990686204137413
aa(lp45
F0.18974885952390222
aF0.018974885952390223
aaa(lp46
(lp47
F0.0095731667604884128
aF0.095731667604884121
aa(lp48
F0.039786106123914658
aF0.079572212247829316
aa(lp49
F0.06570789038962499
aF0.06570789038962499
aa(lp50
F0.097455367964314185
aF0.048727683982157093
aa(lp51
F0.13724107271875932
aF0.027448214543751865
aa(lp52
F0.15885887369617355
aF0.015885887369617355
aaa(lp53
(lp54
F0.009377400604170423
aF0.09377400604170423
aa(lp55
F0.037892957834317793
aF0.075785915668635587
aa(lp56
F0.061128528879487255
aF0.061128528879487255
aa(lp57
F0.088157015292719354
aF0.044078507646359677
aa(lp58
F0.11998967326440618
aF0.023997934652881237
aa(lp59
F0.13640824572586899
aF0.013640824572586899
aaa(lp60
(lp61
F0.0091766398207561873
aF0.091766398207561869
aa(lp62
F0.036126952451013238
aF0.072253904902026475
aa(lp63
F0.05708205069193123
aF0.05708205069193123
aa(lp64
F0.080399551778156914
aF0.040199775889078457
aa(lp65
F0.10650281287000202
aF0.021300562574000405
aa(lp66
F0.11942763974112364
aF0.011942763974112364
aaa(lp67
(lp68
F0.0090254574561260664
aF0.090254574561260667
aa(lp69
F0.034637024765686981
aF0.069274049531373963
aa(lp70
F0.053676918589863697
aF0.053676918589863697
aa(lp71
F0.074021698279543177
aF0.037010849139771589
aa(lp72
F0.095810267845839528
aF0.019162053569167906
aa(lp73
F0.10623369956498843
aF0.010623369956498842
aaaa(lp74
(lp75
(lp76
F0.0098548686020630497
aF0.098548686020630494
aa(lp77
F0.043033879416768103
aF0.086067758833536206
aa(lp78
F0.074304652287975115
aF0.074304652287975115
aa(lp79
F0.11670778567506768
aF0.058353892837533838
aa(lp80
F0.17747522364268523
aF0.035495044728537047
aa(lp81
F0.21474667355330423
aF0.021474667355330424
aaa(lp82
(lp83
F0.0096145250017053013
aF0.096145250017053013
aa(lp84
F0.040920020366526436
aF0.081840040733052871
aa(lp85
F0.069006004079689376
aF0.069006004079689376
aa(lp86
F0.10506098512001306
aF0.052530492560006532
aa(lp87
F0.15303730822494738
aF0.030607461644989474
aa(lp88
F0.18051479740455667
aF0.018051479740455668
aaa(lp89
(lp90
F0.0094787730771854744
aF0.094787730771854734
aa(lp91
F0.039311694391338928
aF0.078623388782677855
aa(lp92
F0.064808487054174357
aF0.064808487054174357
aa(lp93
F0.095911713646837135
aF0.047955856823418568
aa(lp94
F0.13469897325471933
aF0.026939794650943864
aa(lp95
F0.15568571158958061
aF0.01556857115895806
aaa(lp96
(lp97
F0.0092966275999554083
aF0.092966275999554079
aa(lp98
F0.03765585185729825
aF0.075311703714596501
aa(lp99
F0.060863907433427268
aF0.060863907433427268
aa(lp100
F0.087973965879651422
aF0.043986982939825711
aa(lp101
F0.12006042063947278
aF0.024012084127894556
aa(lp102
F0.13667700526282547
aF0.013667700526282548
aaa(lp103
(lp104
F0.0091440643932774856
aF0.091440643932774845
aa(lp105
F0.036202101319352302
aF0.072404202638704604
aa(lp106
F0.057453188914317888
aF0.057453188914317888
aa(lp107
F0.081321583814301893
aF0.040660791907150946
aa(lp108
F0.10832254139500237
aF0.021664508279000474
aa(lp109
F0.12180318852591351
aF0.012180318852591351
aaaa(lp110
(lp111
(lp112
F0.0098956638660454982
aF0.098956638660454968
aa(lp113
F0.04388300504303342
aF0.08776601008606684
aa(lp114
F0.076896145573183736
aF0.076896145573183736
aa(lp115
F0.12326053305869948
aF0.061630266529349741
aa(lp116
F0.19312836568751424
aF0.038625673137502849
aa(lp117
F0.23811949925591758
aF0.023811949925591758
aaa(lp118
(lp119
F0.0096606939288572252
aF0.096606939288572252
aa(lp120
F0.041865554792526377
aF0.083731109585052754
aa(lp121
F0.071773578607382288
aF0.071773578607382288
aa(lp122
F0.11165620271838507
aF0.055828101359192535
aa(lp123
F0.16750197619807888
aF0.033500395239615774
aa(lp124
F0.20101509751269753
aF0.020101509751269751
aaa(lp125
(lp126
F0.0095338891919324736
aF0.095338891919324723
aa(lp127
F0.0403636285660239
aF0.0807272571320478
aa(lp128
F0.06774836707468164
aF0.06774836707468164
aa(lp129
F0.10252871424627544
aF0.051264357123137719
aa(lp130
F0.14816829017740471
aF0.029633658035480941
aa(lp131
F0.17398400523925434
aF0.017398400523925432
aaa(lp132
(lp133
F0.0093955642860467752
aF0.093955642860467745
aa(lp134
F0.038909347602786651
aF0.077818695205573302
aa(lp135
F0.064064740073016907
aF0.064064740073016907
aa(lp136
F0.094666194906545209
aF0.047333097453272605
aa(lp137
F0.13269698048626999
aF0.026539396097253996
aa(lp138
F0.15321418001237411
aF0.015321418001237411
aaa(lp139
(lp140
F0.0092575523554074765
aF0.092575523554074765
aa(lp141
F0.037541538592203147
aF0.075083077184406294
aa(lp142
F0.060737412547223084
aF0.060737412547223084
aa(lp143
F0.08788972136546995
aF0.043944860682734975
aa(lp144
F0.12010509363311833
aF0.024021018726623666
aa(lp145
F0.13682216822524376
aF0.013682216822524376
aaaa(lp146
(lp147
(lp148
F0.0099341727692072272
aF0.099341727692072265
aa(lp149
F0.044591935121886493
aF0.089183870243772986
aa(lp150
F0.07907671291060489
aF0.07907671291060489
aa(lp151
F0.12893024339148404
aF0.06446512169574202
aa(lp152
F0.20737239715965344
aF0.041474479431930687
aa(lp153
F0.26012677551565477
aF0.026012677551565479
aaa(lp154
(lp155
F0.0097775179967602988
aF0.097775179967602974
aa(lp156
F0.042939969420180114
aF0.085879938840360229
aa(lp157
F0.074543777103379283
aF0.074543777103379283
aa(lp158
F0.11794899308557331
aF0.058974496542786657
aa(lp159
F0.18128342405304249
aF0.036256684810608494
aa(lp160
F0.22080489248476834
aF0.022080489248476835
aaa(lp161
(lp162
F0.0095817346478929821
aF0.09581734647892981
aa(lp163
F0.041236041279540815
aF0.08247208255908163
aa(lp164
F0.070242946877542733
aF0.070242946877542733
aa(lp165
F0.10835243504935932
aF0.05417621752467966
aa(lp166
F0.1606465909427468
aF0.032129318188549361
aa(lp167
F0.19144575825495957
aF0.019144575825495957
aaa(lp168
(lp169
F0.0094660617983167786
aF0.094660617983167772
aa(lp170
F0.039913126635541155
aF0.079826253271082309
aa(lp171
F0.066750564557091746
aF0.066750564557091746
aa(lp172
F0.10055796562300809
aF0.050278982811504044
aa(lp173
F0.14445579725909483
aF0.028891159451818967
aa(lp174
F0.16905581689709404
aF0.016905581689709404
aaa(lp175
(lp176
F0.0093397131513616709
aF0.093397131513616699
aa(lp177
F0.038623849457887861
aF0.077247698915775723
aa(lp178
F0.063518791666551028
aF0.063518791666551028
aa(lp179
F0.093723440803739039
aF0.046861720401869519
aa(lp180
F0.13113929474503416
aF0.026227858949006831
aa(lp181
F0.15126893064030433
aF0.015126893064030434
aaaa(lp182
(lp183
(lp184
F0.0099493341256258264
aF0.099493341256258264
aa(lp185
F0.045115187684445557
aF0.090230375368891114
aa(lp186
F0.080824308547121179
aF0.080824308547121179
aa(lp187
F0.13376081979746871
aF0.066880409898734353
aa(lp188
F0.22035459689840931
aF0.044070919379681862
aa(lp189
F0.2809901962089536
aF0.028099019620895362
aaa(lp190
(lp191
F0.0098012121945531636
aF0.098012121945531633
aa(lp192
F0.043563137636474028
aF0.087126275272948056
aa(lp193
F0.076504879973063572
aF0.076504879973063572
aa(lp194
F0.12301638255488762
aF0.061508191277443808
aa(lp195
F0.19365730607099391
aF0.038731461214198779
aa(lp196
F0.23950098543180759
aF0.02395009854318076
aaa(lp197
(lp198
F0.009603168145655587
aF0.09603168145655587
aa(lp199
F0.041901305716114362
aF0.083802611432228724
aa(lp200
F0.072294726042777424
aF0.072294726042777424
aa(lp201
F0.11343528538351072
aF0.05671764269175536
aa(lp202
F0.17224754522873334
aF0.034449509045746667
aa(lp203
F0.20823510416668745
aF0.020823510416668745
aaa(lp204
(lp205
F0.0095088827006289903
aF0.0950888270062899
aa(lp206
F0.040706988491631999
aF0.081413976983263997
aa(lp207
F0.069008688487914277
aF0.069008688487914277
aa(lp208
F0.1057810377359151
aF0.052890518867957551
aa(lp209
F0.15549616161645652
aF0.031099232323291304
aa(lp210
F0.18438144733393599
aF0.018438144733393599
aaa(lp211
(lp212
F0.00939823013243587
aF0.093982301324358697
aa(lp213
F0.039511988055850426
aF0.079023976111700853
aa(lp214
F0.065910910861227814
aF0.065910910861227814
aa(lp215
F0.098974574240901517
aF0.049487287120450758
aa(lp216
F0.14159149611844729
aF0.028318299223689461
aa(lp217
F0.16531950381840171
aF0.016531950381840171
aaaaa(lp218
(lp219
(lp220
(lp221
F25.683782639124747
aF49.20346636891027
aa(lp222
F25.683782639124747
aF49.20346636891027
aa(lp223
F25.683782639124747
aF49.20346636891027
aa(lp224
F25.683782639124747
aF49.20346636891027
aa(lp225
F25.683782639124747
aF49.20346636891027
aa(lp226
F25.683782639124747
aF49.20346636891027
aaa(lp227
(lp228
F25.417762947291408
aF39.896510350510546
aa(lp229
F25.417762947291408
aF39.896510350510546
aa(lp230
F25.417762947291408
aF39.896510350510546
aa(lp231
F25.417762947291408
aF39.896510350510546
aa(lp232
F25.417762947291408
aF39.896510350510546
aa(lp233
F25.417762947291408
aF39.896510350510546
aaa(lp234
(lp235
F25.274588028526427
aF33.651769597326691
aa(lp236
F25.274588028526427
aF33.651769597326691
aa(lp237
F25.274588028526427
aF33.651769597326691
aa(lp238
F25.274588028526427
aF33.651769597326691
aa(lp239
F25.274588028526427
aF33.651769597326691
aa(lp240
F25.274588028526427
aF33.651769597326691
aaa(lp241
(lp242
F25.191546853755
aF29.266680864065229
aa(lp243
F25.191546853755
aF29.266680864065229
aa(lp244
F25.191546853755
aF29.266680864065229
aa(lp245
F25.191546853755
aF29.266680864065229
aa(lp246
F25.191546853755
aF29.266680864065229
aa(lp247
F25.191546853755
aF29.266680864065229
aaa(lp248
(lp249
F25.137841107654804
aF25.929362549457938
aa(lp250
F25.137841107654804
aF25.929362549457938
aa(lp251
F25.137841107654804
aF25.929362549457938
aa(lp252
F25.137841107654804
aF25.929362549457938
aa(lp253
F25.137841107654804
aF25.929362549457938
aa(lp254
F25.137841107654804
aF25.929362549457938
aaaa(lp255
(lp256
(lp257
F37.052019424346895
aF84.818510910204935
aa(lp258
F37.052019424346895
aF84.818510910204935
aa(lp259
F37.052019424346895
aF84.818510910204935
aa(lp260
F37.052019424346895
aF84.818510910204935
aa(lp261
F37.052019424346895
aF84.818510910204935
aa(lp262
F37.052019424346895
aF84.818510910204935
aaa(lp263
(lp264
F36.656702988021159
aF68.536143092019444
aa(lp265
F36.656702988021159
aF68.536143092019444
aa(lp266
F36.656702988021159
aF68.536143092019444
aa(lp267
F36.656702988021159
aF68.536143092019444
aa(lp268
F36.656702988021159
aF68.536143092019444
aa(lp269
F36.656702988021159
aF68.536143092019444
aaa(lp270
(lp271
F36.4482415960534
aF57.779447268431433
aa(lp272
F36.4482415960534
aF57.779447268431433
aa(lp273
F36.4482415960534
aF57.779447268431433
aa(lp274
F36.4482415960534
aF57.779447268431433
aa(lp275
F36.4482415960534
aF57.779447268431433
aa(lp276
F36.4482415960534
aF57.779447268431433
aaa(lp277
(lp278
F36.323146324221725
aF50.168890967647023
aa(lp279
F36.323146324221725
aF50.168890967647023
aa(lp280
F36.323146324221725
aF50.168890967647023
aa(lp281
F36.323146324221725
aF50.168890967647023
aa(lp282
F36.323146324221725
aF50.168890967647023
aa(lp283
F36.323146324221725
aF50.168890967647023
aaa(lp284
(lp285
F36.241011321467788
aF44.240508733891453
aa(lp286
F36.241011321467788
aF44.240508733891453
aa(lp287
F36.241011321467788
aF44.240508733891453
aa(lp288
F36.241011321467788
aF44.240508733891453
aa(lp289
F36.241011321467788
aF44.240508733891453
aa(lp290
F36.241011321467788
aF44.240508733891453
aaaa(lp291
(lp292
(lp293
F50.471898060661175
aF134.17333716400236
aa(lp294
F50.471898060661175
aF134.17333716400236
aa(lp295
F50.471898060661175
aF134.17333716400236
aa(lp296
F50.471898060661175
aF134.17333716400236
aa(lp297
F50.471898060661175
aF134.17333716400236
aa(lp298
F50.471898060661175
aF134.17333716400236
aaa(lp299
(lp300
F49.886685823419882
aF109.17193735558233
aa(lp301
F49.886685823419882
aF109.17193735558233
aa(lp302
F49.886685823419882
aF109.17193735558233
aa(lp303
F49.886685823419882
aF109.17193735558233
aa(lp304
F49.886685823419882
aF109.17193735558233
aa(lp305
F49.886685823419882
aF109.17193735558233
aaa(lp306
(lp307
F49.597182539086013
aF91.536596112787691
aa(lp308
F49.597182539086013
aF91.536596112787691
aa(lp309
F49.597182539086013
aF91.536596112787691
aa(lp310
F49.597182539086013
aF91.536596112787691
aa(lp311
F49.597182539086013
aF91.536596112787691
aa(lp312
F49.597182539086013
aF91.536596112787691
aaa(lp313
(lp314
F49.422574512385509
aF79.389398471362952
aa(lp315
F49.422574512385509
aF79.389398471362952
aa(lp316
F49.422574512385509
aF79.389398471362952
aa(lp317
F49.422574512385509
aF79.389398471362952
aa(lp318
F49.422574512385509
aF79.389398471362952
aa(lp319
F49.422574512385509
aF79.389398471362952
aaa(lp320
(lp321
F49.311343746817698
aF70.090209580893614
aa(lp322
F49.311343746817698
aF70.090209580893614
aa(lp323
F49.311343746817698
aF70.090209580893614
aa(lp324
F49.311343746817698
aF70.090209580893614
aa(lp325
F49.311343746817698
aF70.090209580893614
aa(lp326
F49.311343746817698
aF70.090209580893614
aaaa(lp327
(lp328
(lp329
F65.971012892735047
aF200.36223238688356
aa(lp330
F65.971012892735047
aF200.36223238688356
aa(lp331
F65.971012892735047
aF200.36223238688356
aa(lp332
F65.971012892735047
aF200.36223238688356
aa(lp333
F65.971012892735047
aF200.36223238688356
aa(lp334
F65.971012892735047
aF200.36223238688356
aaa(lp335
(lp336
F65.19886006961076
aF163.0745563866619
aa(lp337
F65.19886006961076
aF163.0745563866619
aa(lp338
F65.19886006961076
aF163.0745563866619
aa(lp339
F65.19886006961076
aF163.0745563866619
aa(lp340
F65.19886006961076
aF163.0745563866619
aa(lp341
F65.19886006961076
aF163.0745563866619
aaa(lp342
(lp343
F64.801821543695681
aF136.72825103034495
aa(lp344
F64.801821543695681
aF136.72825103034495
aa(lp345
F64.801821543695681
aF136.72825103034495
aa(lp346
F64.801821543695681
aF136.72825103034495
aa(lp347
F64.801821543695681
aF136.72825103034495
aa(lp348
F64.801821543695681
aF136.72825103034495
aaa(lp349
(lp350
F64.572334737780494
aF118.100023403671
aa(lp351
F64.572334737780494
aF118.100023403671
aa(lp352
F64.572334737780494
aF118.100023403671
aa(lp353
F64.572334737780494
aF118.100023403671
aa(lp354
F64.572334737780494
aF118.100023403671
aa(lp355
F64.572334737780494
aF118.100023403671
aaa(lp356
(lp357
F64.424680912127613
aF104.16992281812585
aa(lp358
F64.424680912127613
aF104.16992281812585
aa(lp359
F64.424680912127613
aF104.16992281812585
aa(lp360
F64.424680912127613
aF104.16992281812585
aa(lp361
F64.424680912127613
aF104.16992281812585
aa(lp362
F64.424680912127613
aF104.16992281812585
aaaa(lp363
(lp364
(lp365
F83.581780457728627
aF285.17406341460037
aa(lp366
F83.581780457728627
aF285.17406341460037
aa(lp367
F83.581780457728627
aF285.17406341460037
aa(lp368
F83.581780457728627
aF285.17406341460037
aa(lp369
F83.581780457728627
aF285.17406341460037
aa(lp370
F83.581780457728627
aF285.17406341460037
aaa(lp371
(lp372
F82.617189104429741
aF230.32643820396532
aa(lp373
F82.617189104429741
aF230.32643820396532
aa(lp374
F82.617189104429741
aF230.32643820396532
aa(lp375
F82.617189104429741
aF230.32643820396532
aa(lp376
F82.617189104429741
aF230.32643820396532
aa(lp377
F82.617189104429741
aF230.32643820396532
aaa(lp378
(lp379
F82.075272874656022
aF194.67849193948979
aa(lp380
F82.075272874656022
aF194.67849193948979
aa(lp381
F82.075272874656022
aF194.67849193948979
aa(lp382
F82.075272874656022
aF194.67849193948979
aa(lp383
F82.075272874656022
aF194.67849193948979
aa(lp384
F82.075272874656022
aF194.67849193948979
aaa(lp385
(lp386
F81.779292830578697
aF167.84941448328092
aa(lp387
F81.779292830578697
aF167.84941448328092
aa(lp388
F81.779292830578697
aF167.84941448328092
aa(lp389
F81.779292830578697
aF167.84941448328092
aa(lp390
F81.779292830578697
aF167.84941448328092
aa(lp391
F81.779292830578697
aF167.84941448328092
aaa(lp392
(lp393
F81.5897704903673
aF147.94860102871539
aa(lp394
F81.5897704903673
aF147.94860102871539
aa(lp395
F81.5897704903673
aF147.94860102871539
aa(lp396
F81.5897704903673
aF147.94860102871539
aa(lp397
F81.5897704903673
aF147.94860102871539
aa(lp398
F81.5897704903673
aF147.94860102871539
aaaa(lp399
(lp400
(lp401
F103.18184391870862
aF391.7187709956732
aa(lp402
F103.18184391870862
aF391.7187709956732
aa(lp403
F103.18184391870862
aF391.7187709956732
aa(lp404
F103.18184391870862
aF391.7187709956732
aa(lp405
F103.18184391870862
aF391.7187709956732
aa(lp406
F103.18184391870862
aF391.7187709956732
aaa(lp407
(lp408
F101.98193789541196
aF316.2920337945875
aa(lp409
F101.98193789541196
aF316.2920337945875
aa(lp410
F101.98193789541196
aF316.2920337945875
aa(lp411
F101.98193789541196
aF316.2920337945875
aa(lp412
F101.98193789541196
aF316.2920337945875
aa(lp413
F101.98193789541196
aF316.2920337945875
aaa(lp414
(lp415
F101.30481490448935
aF267.55565564889196
aa(lp416
F101.30481490448935
aF267.55565564889196
aa(lp417
F101.30481490448935
aF267.55565564889196
aa(lp418
F101.30481490448935
aF267.55565564889196
aa(lp419
F101.30481490448935
aF267.55565564889196
aa(lp420
F101.30481490448935
aF267.55565564889196
aaa(lp421
(lp422
F100.93831790887397
aF230.28291463412543
aa(lp423
F100.93831790887397
aF230.28291463412543
aa(lp424
F100.93831790887397
aF230.28291463412543
aa(lp425
F100.93831790887397
aF230.28291463412543
aa(lp426
F100.93831790887397
aF230.28291463412543
aa(lp427
F100.93831790887397
aF230.28291463412543
aaa(lp428
(lp429
F100.70430176165921
aF202.7355951942335
aa(lp430
F100.70430176165921
aF202.7355951942335
aa(lp431
F100.70430176165921
aF202.7355951942335
aa(lp432
F100.70430176165921
aF202.7355951942335
aa(lp433
F100.70430176165921
aF202.7355951942335
aa(lp434
F100.70430176165921
aF202.7355951942335
aaaaa(lp435
(lp436
(lp437
(lp438
F5.0
aa(lp439
F5.0
aa(lp440
F5.0
aa(lp441
F5.0
aa(lp442
F5.0
aa(lp443
F5.0
aaa(lp444
(lp445
F4.0
aa(lp446
F4.0
aa(lp447
F4.0
aa(lp448
F4.0
aa(lp449
F4.0
aa(lp450
F4.0
aaa(lp451
(lp452
F3.3333333333333339
aa(lp453
F3.3333333333333339
aa(lp454
F3.3333333333333339
aa(lp455
F3.3333333333333339
aa(lp456
F3.3333333333333339
aa(lp457
F3.3333333333333339
aaa(lp458
(lp459
F2.8571428571428577
aa(lp460
F2.8571428571428577
aa(lp461
F2.8571428571428577
aa(lp462
F2.8571428571428577
aa(lp463
F2.8571428571428577
aa(lp464
F2.8571428571428577
aaa(lp465
(lp466
F2.5
aa(lp467
F2.5
aa(lp468
F2.5
aa(lp469
F2.5
aa(lp470
F2.5
aa(lp471
F2.5
aaaa(lp472
(lp473
(lp474
F8.6400000000000006
aa(lp475
F8.6400000000000006
aa(lp476
F8.6400000000000006
aa(lp477
F8.6400000000000006
aa(lp478
F8.6400000000000006
aa(lp479
F8.6400000000000006
aaa(lp480
(lp481
F6.9120000000000008
aa(lp482
F6.9120000000000008
aa(lp483
F6.9120000000000008
aa(lp484
F6.9120000000000008
aa(lp485
F6.9120000000000008
aa(lp486
F6.9120000000000008
aaa(lp487
(lp488
F5.7600000000000007
aa(lp489
F5.7600000000000007
aa(lp490
F5.7600000000000007
aa(lp491
F5.7600000000000007
aa(lp492
F5.7600000000000007
aa(lp493
F5.7600000000000007
aaa(lp494
(lp495
F4.9371428571428577
aa(lp496
F4.9371428571428577
aa(lp497
F4.9371428571428577
aa(lp498
F4.9371428571428577
aa(lp499
F4.9371428571428577
aa(lp500
F4.9371428571428577
aaa(lp501
(lp502
F4.3200000000000003
aa(lp503
F4.3200000000000003
aa(lp504
F4.3200000000000003
aa(lp505
F4.3200000000000003
aa(lp506
F4.3200000000000003
aa(lp507
F4.3200000000000003
aaaa(lp508
(lp509
(lp510
F13.719999999999999
aa(lp511
F13.719999999999999
aa(lp512
F13.719999999999999
aa(lp513
F13.719999999999999
aa(lp514
F13.719999999999999
aa(lp515
F13.719999999999999
aaa(lp516
(lp517
F10.976000000000001
aa(lp518
F10.976000000000001
aa(lp519
F10.976000000000001
aa(lp520
F10.976000000000001
aa(lp521
F10.976000000000001
aa(lp522
F10.976000000000001
aaa(lp523
(lp524
F9.1466666666666665
aa(lp525
F9.1466666666666665
aa(lp526
F9.1466666666666665
aa(lp527
F9.1466666666666665
aa(lp528
F9.1466666666666665
aa(lp529
F9.1466666666666665
aaa(lp530
(lp531
F7.8400000000000007
aa(lp532
F7.8400000000000007
aa(lp533
F7.8400000000000007
aa(lp534
F7.8400000000000007
aa(lp535
F7.8400000000000007
aa(lp536
F7.8400000000000007
aaa(lp537
(lp538
F6.8599999999999994
aa(lp539
F6.8599999999999994
aa(lp540
F6.8599999999999994
aa(lp541
F6.8599999999999994
aa(lp542
F6.8599999999999994
aa(lp543
F6.8599999999999994
aaaa(lp544
(lp545
(lp546
F20.480000000000004
aa(lp547
F20.480000000000004
aa(lp548
F20.480000000000004
aa(lp549
F20.480000000000004
aa(lp550
F20.480000000000004
aa(lp551
F20.480000000000004
aaa(lp552
(lp553
F16.384
aa(lp554
F16.384
aa(lp555
F16.384
aa(lp556
F16.384
aa(lp557
F16.384
aa(lp558
F16.384
aaa(lp559
(lp560
F13.653333333333334
aa(lp561
F13.653333333333334
aa(lp562
F13.653333333333334
aa(lp563
F13.653333333333334
aa(lp564
F13.653333333333334
aa(lp565
F13.653333333333334
aaa(lp566
(lp567
F11.702857142857143
aa(lp568
F11.702857142857143
aa(lp569
F11.702857142857143
aa(lp570
F11.702857142857143
aa(lp571
F11.702857142857143
aa(lp572
F11.702857142857143
aaa(lp573
(lp574
F10.240000000000002
aa(lp575
F10.240000000000002
aa(lp576
F10.240000000000002
aa(lp577
F10.240000000000002
aa(lp578
F10.240000000000002
aa(lp579
F10.240000000000002
aaaa(lp580
(lp581
(lp582
F29.160000000000004
aa(lp583
F29.160000000000004
aa(lp584
F29.160000000000004
aa(lp585
F29.160000000000004
aa(lp586
F29.160000000000004
aa(lp587
F29.160000000000004
aaa(lp588
(lp589
F23.328000000000003
aa(lp590
F23.328000000000003
aa(lp591
F23.328000000000003
aa(lp592
F23.328000000000003
aa(lp593
F23.328000000000003
aa(lp594
F23.328000000000003
aaa(lp595
(lp596
F19.440000000000001
aa(lp597
F19.440000000000001
aa(lp598
F19.440000000000001
aa(lp599
F19.440000000000001
aa(lp600
F19.440000000000001
aa(lp601
F19.440000000000001
aaa(lp602
(lp603
F16.662857142857145
aa(lp604
F16.662857142857145
aa(lp605
F16.662857142857145
aa(lp606
F16.662857142857145
aa(lp607
F16.662857142857145
aa(lp608
F16.662857142857145
aaa(lp609
(lp610
F14.580000000000002
aa(lp611
F14.580000000000002
aa(lp612
F14.580000000000002
aa(lp613
F14.580000000000002
aa(lp614
F14.580000000000002
aa(lp615
F14.580000000000002
aaaa(lp616
(lp617
(lp618
F40.0
aa(lp619
F40.0
aa(lp620
F40.0
aa(lp621
F40.0
aa(lp622
F40.0
aa(lp623
F40.0
aaa(lp624
(lp625
F32.0
aa(lp626
F32.0
aa(lp627
F32.0
aa(lp628
F32.0
aa(lp629
F32.0
aa(lp630
F32.0
aaa(lp631
(lp632
F26.666666666666671
aa(lp633
F26.666666666666671
aa(lp634
F26.666666666666671
aa(lp635
F26.666666666666671
aa(lp636
F26.666666666666671
aa(lp637
F26.666666666666671
aaa(lp638
(lp639
F22.857142857142861
aa(lp640
F22.857142857142861
aa(lp641
F22.857142857142861
aa(lp642
F22.857142857142861
aa(lp643
F22.857142857142861
aa(lp644
F22.857142857142861
aaa(lp645
(lp646
F20.0
aa(lp647
F20.0
aa(lp648
F20.0
aa(lp649
F20.0
aa(lp650
F20.0
aa(lp651
F20.0
aaaaa.