(lp0
(lp1
F3.7443624504017508
aF3.7443624504017508
aF3.7443624504017508
aF2.9463178812926545
aF2.9463178812926545
aF2.9463178812926545
aF2.553360182855636
aF2.553360182855636
aF2.553360182855636
aF21.306659622369502
aF21.306659622369502
aF21.306659622369502
aF16.122405805923254
aF16.122405805923254
aF16.122405805923254
aF13.487568298420287
aF13.487568298420287
aF13.487568298420287
aF49.490061491438297
aF49.490061491438297
aF49.490061491438297
aF36.886047055338175
aF36.886047055338175
aF36.886047055338175
aF30.3439896955893
aF30.3439896955893
aF30.3439896955893
aa(lp2
(lp3
F25.68378263912475
aF49.203466368910263
aa(lp4
F25.68378263912475
aF49.203466368910263
aa(lp5
F25.68378263912475
aF49.203466368910263
aa(lp6
F25.274588028526434
aF33.651769597326656
aa(lp7
F25.274588028526434
aF33.651769597326656
aa(lp8
F25.274588028526434
aF33.651769597326656
aa(lp9
F25.137841107654808
aF25.929362549457913
aa(lp10
F25.137841107654808
aF25.929362549457913
aa(lp11
F25.137841107654808
aF25.929362549457913
aa(lp12
F65.971012892735075
aF200.3622323868837
aa(lp13
F65.971012892735075
aF200.3622323868837
aa(lp14
F65.971012892735075
aF200.3622323868837
aa(lp15
F64.801821543695596
aF136.72825103034506
aa(lp16
F64.801821543695596
aF136.72825103034506
aa(lp17
F64.801821543695596
aF136.72825103034506
aa(lp18
F64.424680912127585
aF104.16992281812601
aa(lp19
F64.424680912127585
aF104.16992281812601
aa(lp20
F64.424680912127585
aF104.16992281812601
aa(lp21
F103.18184391870864
aF391.71877099567428
aa(lp22
F103.18184391870864
aF391.71877099567428
aa(lp23
F103.18184391870864
aF391.71877099567428
aa(lp24
F101.30481490448939
aF267.55565564889235
aa(lp25
F101.30481490448939
aF267.55565564889235
aa(lp26
F101.30481490448939
aF267.55565564889235
aa(lp27
F100.70430176165905
aF202.73559519423392
aa(lp28
F100.70430176165905
aF202.73559519423392
aa(lp29
F100.70430176165905
aF202.73559519423392
aaa(lp30
(lp31
F0.00723243005335736
aF0.072324300533573596
aa(lp32
F0.050000000000000003
aF0.050000000000000003
aa(lp33
F0.12234827583662637
aF0.012234827583662638
aa(lp34
F0.0081436725203295184
aF0.081436725203295188
aa(lp35
F0.050000000000000003
aF0.050000000000000003
aa(lp36
F0.10287507186251356
aF0.010287507186251356
aa(lp37
F0.0089770664735431983
aF0.089770664735431979
aa(lp38
F0.050000000000000003
aF0.050000000000000003
aa(lp39
F0.092076761840050383
aF0.0092076761840050383
aa(lp40
F0.010295094811094351
aF0.1029509481109435
aa(lp41
F0.080000000000000002
aF0.080000000000000002
aa(lp42
F0.2477310117233838
aF0.024773101172338378
aa(lp43
F0.011258000277908272
aF0.11258000277908271
aa(lp44
F0.080000000000000002
aF0.080000000000000002
aa(lp45
F0.20544731954642126
aF0.020544731954642126
aa(lp46
F0.012193541959937474
aF0.12193541959937473
aa(lp47
F0.080000000000000002
aF0.080000000000000002
aa(lp48
F0.18021468151132081
aF0.018021468151132081
aa(lp49
F0.012309828941902157
aF0.12309828941902157
aa(lp50
F0.10000000000000001
aF0.10000000000000001
aa(lp51
F0.34765555222181033
aF0.034765555222181034
aa(lp52
F0.013283359203786602
aF0.13283359203786602
aa(lp53
F0.10000000000000001
aF0.10000000000000001
aa(lp54
F0.28803636940746274
aF0.028803636940746277
aa(lp55
F0.014258989914770518
aF0.14258989914770517
aa(lp56
F0.10000000000000001
aF0.10000000000000001
aa(lp57
F0.2508226660172761
aF0.025082266601727611
aaa.